target datalayout = "e-m:e-p270:32:32-p271:32:32-p272:64:64-i64:64-i128:128-f80:128-n8:16:32:64-S128"
target triple = "x86_64-pc-linux-gnu"

@.str.1 = private unnamed_addr constant [31 x i8] c"../openssl/crypto/ts/ts_conf.c\00", align 1
@.str.4 = private unnamed_addr constant [7 x i8] c"serial\00", align 1
@__func__.ts_CONF_lookup_fail = private unnamed_addr constant [20 x i8] c"ts_CONF_lookup_fail\00", align 1
@.str.26 = private unnamed_addr constant [7 x i8] c"%s::%s\00", align 1

; Function Attrs: nounwind uwtable
define internal void @ts_CONF_lookup_fail(ptr noundef %0, ptr noundef %1) #0 {
  %3 = alloca ptr, align 8
  %4 = alloca ptr, align 8
  store ptr %0, ptr %3, align 8, !tbaa !3
  store ptr %1, ptr %4, align 8, !tbaa !3
  call void @ERR_new()
  call void @ERR_set_debug(ptr noundef @.str.1, i32 noundef 127, ptr noundef @__func__.ts_CONF_lookup_fail)
  %5 = load ptr, ptr %3, align 8, !tbaa !3
  %6 = load ptr, ptr %4, align 8, !tbaa !3
  call void (i32, i32, ptr, ...) @ERR_set_error(i32 noundef 47, i32 noundef 136, ptr noundef @.str.26, ptr noundef %5, ptr noundef %6)
  ret void
}

; Function Attrs: nounwind uwtable
define i32 @TS_CONF_set_serial(ptr noundef %0, ptr noundef %1, ptr noundef %2, ptr noundef %3) #0 {
  %5 = alloca ptr, align 8
  %6 = alloca ptr, align 8
  %7 = alloca ptr, align 8
  %8 = alloca ptr, align 8
  %9 = alloca i32, align 4
  %10 = alloca ptr, align 8
  store ptr %0, ptr %5, align 8, !tbaa !31
  store ptr %1, ptr %6, align 8, !tbaa !3
  store ptr %2, ptr %7, align 8, !tbaa !28
  store ptr %3, ptr %8, align 8, !tbaa !33
  call void @llvm.lifetime.start.p0(i64 4, ptr %9) #7
  store i32 0, ptr %9, align 4, !tbaa !16
  call void @llvm.lifetime.start.p0(i64 8, ptr %10) #7
  %11 = load ptr, ptr %5, align 8, !tbaa !31
  %12 = load ptr, ptr %6, align 8, !tbaa !3
  %13 = call ptr @NCONF_get_string(ptr noundef %11, ptr noundef %12, ptr noundef @.str.4)
  store ptr %13, ptr %10, align 8, !tbaa !3
  %14 = load ptr, ptr %10, align 8, !tbaa !3
  %15 = icmp ne ptr %14, null
  br i1 %15, label %18, label %16

16:                                               ; preds = %4
  %17 = load ptr, ptr %6, align 8, !tbaa !3
  call void @ts_CONF_lookup_fail(ptr noundef %17, ptr noundef @.str.4)
  br label %22

18:                                               ; preds = %4
  %19 = load ptr, ptr %8, align 8, !tbaa !33
  %20 = load ptr, ptr %7, align 8, !tbaa !28
  %21 = load ptr, ptr %10, align 8, !tbaa !3
  call void @TS_RESP_CTX_set_serial_cb(ptr noundef %19, ptr noundef %20, ptr noundef %21)
  store i32 1, ptr %9, align 4, !tbaa !16
  br label %22

22:                                               ; preds = %18, %16
  %23 = load i32, ptr %9, align 4, !tbaa !16
  call void @llvm.lifetime.end.p0(i64 8, ptr %10) #7
  call void @llvm.lifetime.end.p0(i64 4, ptr %9) #7
  ret i32 %23
}