; Function Attrs: nounwind uwtable
define range(i32 0, 2) i32 @TS_CONF_set_serial(ptr noundef %0, ptr noundef %1, ptr noundef %2, ptr noundef %3) local_unnamed_addr #0 {
  %5 = tail call ptr @NCONF_get_string(ptr noundef %0, ptr noundef %1, ptr noundef nonnull @.str.4) #4
  %.not = icmp eq ptr %5, null
  br i1 %.not, label %6, label %7

6:                                                ; preds = %4
  tail call void @ERR_new() #4
  tail call void @ERR_set_debug(ptr noundef nonnull @.str.1, i32 noundef 127, ptr noundef nonnull @__func__.ts_CONF_lookup_fail) #4
  tail call void (i32, i32, ptr, ...) @ERR_set_error(i32 noundef 47, i32 noundef 136, ptr noundef nonnull @.str.26, ptr noundef %1, ptr noundef nonnull @.str.4) #4
  br label %8

7:                                                ; preds = %4
  tail call void @TS_RESP_CTX_set_serial_cb(ptr noundef %3, ptr noundef %2, ptr noundef nonnull %5) #4
  br label %8

8:                                                ; preds = %7, %6
  %.0 = phi i32 [ 1, %7 ], [ 0, %6 ]
  ret i32 %.0
}